(lp1
(lp2
S'pt c/o sore throat x 1 week N pt states took antibiotic x 5 days after initiation of sore throat and sx resolved and now back after completed antibiotics N pt tolerating po fluids yet c/o pain on swallowing'
p3
a(lp4
((I2
I3
tS'sore throat'
tp5
a((I18
I19
tS'sore throat'
tp6
a((I21
tS'sx'
tp7
a((I36
I37
I38
tS'pain on swallowing'
tp8
aaa.