(lp1
(lp2
S'from the scene fall of horse landed on r thigh deformity iv fluid 100 fentanyl / morhpine 4 .'
p3
a(lp4
((I10
tS'deformity'
tp5
aaa(lp6
S'no head or neck pain /'
p7
a(lp8
((I3
I4
tS'neck pain'
tp9
aaa.