(lp1
(lp2
S'cantonese speaking with numness right arm blurred vision dizziness lack of focus SOB since8 am .'
p3
a(lp4
((I6
I7
I8
tS'blurred vision dizziness'
tp5
aaa(lp6
S'tongue midline .'
p7
a(lp8
aa(lp9
S'no facial droop .'
p10
a(lp11
((I1
I2
tS'facial droop'
tp12
aaa(lp13
S'same sxs as strok in 08 .'
p14
a(lp15
aa.