(lp1
(lp2
S'89 yo f s/p esophageal hernia repair 3/09 w / ?'
p3
a(lp4
((I4
I5
tS'esophageal hernia'
tp5
aaa(lp6
S"g-tube placement now w / c/o 's n & v. family reports pt 's appetite is decreased , no BM x3d ."
p7
a(lp8
((I19
I20
tS'BM x3d'
tp9
aaa(lp10
S'generally not feeling well , had a bad day .'
p11
a(lp12
aa.